Certificate:
    Data:
        Version: 3 (0x2)
        Serial Number: 1 (0x1)
    Signature Algorithm: sha256WithRSAEncryption
        Issuer: CN=devcert
        Validity
            Not Before: Apr 21 00:10:06 2020 GMT
            Not After : Jul 25 00:10:06 2022 GMT
        Subject: CN=localhost
        Subject Public Key Info:
            Public Key Algorithm: rsaEncryption
                Public-Key: (2048 bit)
                Modulus:
                    00:c6:96:22:67:23:9e:ea:c2:9d:a5:03:d0:1b:ee:
                    e1:00:e5:d5:df:16:d2:ba:8c:b0:32:70:2b:a6:e3:
                    fb:69:a3:5e:f8:41:aa:2c:2a:f1:44:1b:6f:38:bb:
                    30:73:a8:f2:3a:85:ff:a0:f1:4a:65:a0:e1:83:f6:
                    5e:1d:c3:1d:44:61:bf:bd:ed:68:8f:35:50:0a:39:
                    9f:3c:66:b3:86:11:94:fa:5d:cc:f9:ba:9d:3a:35:
                    b3:57:07:14:0a:07:11:01:3f:84:64:eb:8e:8c:2f:
                    c7:a8:2f:81:66:8f:5c:40:f8:49:96:81:4f:9e:95:
                    6c:94:bd:6b:b7:11:c1:35:90:05:8e:e9:d2:5c:17:
                    eb:74:7f:3a:ac:ac:e4:f8:5a:f7:bf:d6:25:dc:85:
                    21:15:ae:4a:0f:13:42:f0:91:8f:a0:08:14:c0:74:
                    5d:86:7c:2b:2b:26:ad:58:f9:f4:4f:cb:6f:d7:9f:
                    83:9a:f5:ff:21:24:d1:72:c9:bc:06:3b:bd:f7:63:
                    8b:c6:8b:88:fd:71:7e:43:11:4e:3c:53:f5:be:57:
                    0f:44:29:70:1c:4e:c8:43:2c:3e:d6:3f:7c:dd:27:
                    74:3d:e5:05:63:8a:96:ae:e0:b3:2e:f7:87:12:cf:
                    4e:1a:97:e7:94:9b:9b:de:95:92:99:e3:f9:24:f2:
                    12:fb
                Exponent: 65537 (0x10001)
        X509v3 extensions:
            X509v3 Basic Constraints: critical
                CA:FALSE
            X509v3 Subject Key Identifier: 
                E4:74:E3:04:CF:77:1B:2C:99:42:A2:2A:83:CA:F4:D0:ED:D8:AD:97
            X509v3 Authority Key Identifier: 
                keyid:33:69:A2:04:58:EB:49:51:50:DD:4E:5E:3E:B2:D1:FA:67:3D:A9:19
                DirName:/CN=devcert
                serial:D7:D5:3A:D6:DA:10:6B:88

            X509v3 Key Usage: critical
                Digital Signature, Key Encipherment
            X509v3 Extended Key Usage: 
                TLS Web Server Authentication
            X509v3 Subject Alternative Name: 
                DNS:localhost, DNS:*.localhost
    Signature Algorithm: sha256WithRSAEncryption
         be:35:0c:b1:7b:4f:54:68:87:c9:82:21:17:18:43:f1:9f:94:
         94:89:09:13:37:4c:90:6b:f7:44:30:36:cf:23:cc:db:ca:25:
         ce:55:dd:f6:aa:4d:46:30:97:09:5d:93:ce:3e:4f:98:5e:0f:
         3e:c8:2d:9d:47:75:e2:2b:02:72:09:62:32:33:31:ff:7e:83:
         a1:75:b1:32:52:2a:fa:d2:49:0e:64:98:3e:bc:4d:7f:f3:bc:
         ae:be:f0:36:ea:c6:12:b3:96:32:18:3f:8e:3f:3d:07:7d:1a:
         49:71:30:bf:de:92:6b:31:50:d0:fc:16:84:25:fe:9c:5d:21:
         46:47:5a:4c:24:db:d9:40:db:34:f1:fb:a8:49:8a:a5:91:16:
         2e:7a:b2:bd:60:49:2d:4e:90:31:a5:0b:80:60:71:72:2e:49:
         d5:43:f3:d9:c2:b3:5f:dd:9f:97:df:c9:09:6a:a4:68:7e:e5:
         99:0f:90:81:71:0d:37:ab:0c:28:d2:a3:68:4e:e2:6e:23:01:
         9b:57:64:34:95:9b:ad:20:2e:d4:1c:ba:9f:18:1c:be:aa:8c:
         b4:ba:1c:0e:c0:80:09:10:8b:88:56:0c:f0:e9:0c:22:5c:d3:
         c9:51:e7:fd:91:fe:a8:3a:51:4a:58:65:bd:64:99:bd:8e:45:
         06:7b:f5:4d
-----BEGIN CERTIFICATE-----
MIIDXjCCAkagAwIBAgIBATANBgkqhkiG9w0BAQsFADASMRAwDgYDVQQDDAdkZXZj
ZXJ0MB4XDTIwMDQyMTAwMTAwNloXDTIyMDcyNTAwMTAwNlowFDESMBAGA1UEAwwJ
bG9jYWxob3N0MIIBIjANBgkqhkiG9w0BAQEFAAOCAQ8AMIIBCgKCAQEAxpYiZyOe
6sKdpQPQG+7hAOXV3xbSuoywMnArpuP7aaNe+EGqLCrxRBtvOLswc6jyOoX/oPFK
ZaDhg/ZeHcMdRGG/ve1ojzVQCjmfPGazhhGU+l3M+bqdOjWzVwcUCgcRAT+EZOuO
jC/HqC+BZo9cQPhJloFPnpVslL1rtxHBNZAFjunSXBfrdH86rKzk+Fr3v9Yl3IUh
Fa5KDxNC8JGPoAgUwHRdhnwrKyatWPn0T8tv15+DmvX/ISTRcsm8Bju992OLxouI
/XF+QxFOPFP1vlcPRClwHE7IQyw+1j983Sd0PeUFY4qWruCzLveHEs9OGpfnlJub
3pWSmeP5JPIS+wIDAQABo4G8MIG5MAwGA1UdEwEB/wQCMAAwHQYDVR0OBBYEFOR0
4wTPdxssmUKiKoPK9NDt2K2XMEIGA1UdIwQ7MDmAFDNpogRY60lRUN1OXj6y0fpn
PakZoRakFDASMRAwDgYDVQQDDAdkZXZjZXJ0ggkA19U61toQa4gwDgYDVR0PAQH/
BAQDAgWgMBMGA1UdJQQMMAoGCCsGAQUFBwMBMCEGA1UdEQQaMBiCCWxvY2FsaG9z
dIILKi5sb2NhbGhvc3QwDQYJKoZIhvcNAQELBQADggEBAL41DLF7T1Roh8mCIRcY
Q/GflJSJCRM3TJBr90QwNs8jzNvKJc5V3faqTUYwlwldk84+T5heDz7ILZ1HdeIr
AnIJYjIzMf9+g6F1sTJSKvrSSQ5kmD68TX/zvK6+8DbqxhKzljIYP44/PQd9Gklx
ML/ekmsxUND8FoQl/pxdIUZHWkwk29lA2zTx+6hJiqWRFi56sr1gSS1OkDGlC4Bg
cXIuSdVD89nCs1/dn5ffyQlqpGh+5ZkPkIFxDTerDCjSo2hO4m4jAZtXZDSVm60g
LtQcup8YHL6qjLS6HA7AgAkQi4hWDPDpDCJc08lR5/2R/qg6UUpYZb1kmb2ORQZ7
9U0=
-----END CERTIFICATE-----
